target datalayout = "e-m:e-p270:32:32-p271:32:32-p272:64:64-i64:64-i128:128-f80:128-n8:16:32:64-S128"
target triple = "x86_64-pc-linux-gnu"

%struct.cpu_set_t = type { [16 x i64] }
%struct.hwloc_topology = type { i32, i32, i32, ptr, ptr, i64, [20 x i32], [20 x i32], i64, i64, i32, ptr, i64, ptr, i64, [6 x %struct.hwloc_special_level_s], ptr, ptr, %struct.hwloc_binding_hooks, %struct.hwloc_topology_support, %struct.hwloc_infos_s, ptr, ptr, i32, ptr, ptr, i32, i32, ptr, i32, i32, ptr, i32, i32, i32, [5 x float], i32, ptr, ptr, i32, i32, ptr, i32, %struct.hwloc_numanode_attr_s, i32, i32, ptr, i64, i32, ptr, ptr, ptr }
%struct.hwloc_special_level_s = type { i32, ptr, ptr, ptr }
%struct.hwloc_binding_hooks = type { ptr, ptr, ptr, ptr, ptr, ptr, ptr, ptr, ptr, ptr, ptr, ptr, ptr, ptr, ptr, ptr, ptr, ptr, ptr, ptr, ptr, ptr, ptr, ptr }
%struct.hwloc_topology_support = type { ptr, ptr, ptr, ptr }
%struct.hwloc_infos_s = type { ptr, i32, i32 }
%struct.hwloc_numanode_attr_s = type { i64, i32, ptr }
%struct.hwloc_obj = type { i32, ptr, i32, ptr, i64, ptr, i32, i32, ptr, ptr, ptr, i32, ptr, ptr, i32, ptr, ptr, ptr, i32, i32, ptr, i32, ptr, i32, ptr, ptr, ptr, ptr, ptr, %struct.hwloc_infos_s, ptr, i64 }

@hwloc_linux_find_kernel_nr_cpus._nr_cpus = internal global i32 -1, align 4
@.str.4 = private unnamed_addr constant [33 x i8] c"/sys/devices/system/cpu/possible\00", align 1

; Function Attrs: inlinehint nounwind uwtable
define internal ptr @hwloc__alloc_read_path_as_cpulist(ptr noundef %0, i32 noundef %1) #1 {
  %3 = alloca ptr, align 8
  %4 = alloca ptr, align 8
  %5 = alloca i32, align 4
  %6 = alloca ptr, align 8
  %7 = alloca i32, align 4
  %8 = alloca i32, align 4
  store ptr %0, ptr %4, align 8, !tbaa !3
  store i32 %1, ptr %5, align 4, !tbaa !10
  call void @llvm.lifetime.start.p0(i64 8, ptr %6) #14
  call void @llvm.lifetime.start.p0(i64 4, ptr %7) #14
  %9 = call noalias ptr @hwloc_bitmap_alloc_full()
  store ptr %9, ptr %6, align 8, !tbaa !8
  %10 = load ptr, ptr %6, align 8, !tbaa !8
  %11 = icmp ne ptr %10, null
  br i1 %11, label %13, label %12

12:                                               ; preds = %2
  store ptr null, ptr %3, align 8
  store i32 1, ptr %8, align 4
  br label %24

13:                                               ; preds = %2
  %14 = load ptr, ptr %4, align 8, !tbaa !3
  %15 = load ptr, ptr %6, align 8, !tbaa !8
  %16 = load i32, ptr %5, align 4, !tbaa !10
  %17 = call i32 @hwloc__read_path_as_cpulist(ptr noundef %14, ptr noundef %15, i32 noundef %16)
  store i32 %17, ptr %7, align 4, !tbaa !10
  %18 = load i32, ptr %7, align 4, !tbaa !10
  %19 = icmp slt i32 %18, 0
  br i1 %19, label %20, label %22

20:                                               ; preds = %13
  %21 = load ptr, ptr %6, align 8, !tbaa !8
  call void @hwloc_bitmap_free(ptr noundef %21)
  store ptr null, ptr %3, align 8
  store i32 1, ptr %8, align 4
  br label %24

22:                                               ; preds = %13
  %23 = load ptr, ptr %6, align 8, !tbaa !8
  store ptr %23, ptr %3, align 8
  store i32 1, ptr %8, align 4
  br label %24

24:                                               ; preds = %22, %20, %12
  call void @llvm.lifetime.end.p0(i64 4, ptr %7) #14
  call void @llvm.lifetime.end.p0(i64 8, ptr %6) #14
  %25 = load ptr, ptr %3, align 8
  ret ptr %25
}

; Function Attrs: nounwind uwtable
define internal i32 @hwloc_linux_find_kernel_nr_cpus(ptr noundef %0) #0 {
  %2 = alloca i32, align 4
  %3 = alloca ptr, align 8
  %4 = alloca i32, align 4
  %5 = alloca ptr, align 8
  %6 = alloca i32, align 4
  %7 = alloca i32, align 4
  %8 = alloca ptr, align 8
  %9 = alloca i64, align 8
  %10 = alloca i32, align 4
  store ptr %0, ptr %3, align 8, !tbaa !19
  call void @llvm.lifetime.start.p0(i64 4, ptr %4) #14
  %11 = load i32, ptr @hwloc_linux_find_kernel_nr_cpus._nr_cpus, align 4, !tbaa !10
  store i32 %11, ptr %4, align 4, !tbaa !10
  call void @llvm.lifetime.start.p0(i64 8, ptr %5) #14
  %12 = load i32, ptr %4, align 4, !tbaa !10
  %13 = icmp ne i32 %12, -1
  br i1 %13, label %14, label %16

14:                                               ; preds = %1
  %15 = load i32, ptr %4, align 4, !tbaa !10
  store i32 %15, ptr %2, align 4
  store i32 1, ptr %6, align 4
  br label %95

16:                                               ; preds = %1
  %17 = load ptr, ptr %3, align 8, !tbaa !19
  %18 = getelementptr inbounds nuw %struct.hwloc_topology, ptr %17, i32 0, i32 4
  %19 = load ptr, ptr %18, align 8, !tbaa !23
  %20 = getelementptr inbounds ptr, ptr %19, i64 0
  %21 = load ptr, ptr %20, align 8, !tbaa !45
  %22 = getelementptr inbounds ptr, ptr %21, i64 0
  %23 = load ptr, ptr %22, align 8, !tbaa !47
  %24 = getelementptr inbounds nuw %struct.hwloc_obj, ptr %23, i32 0, i32 26
  %25 = load ptr, ptr %24, align 8, !tbaa !49
  %26 = icmp ne ptr %25, null
  br i1 %26, label %27, label %39

27:                                               ; preds = %16
  %28 = load ptr, ptr %3, align 8, !tbaa !19
  %29 = getelementptr inbounds nuw %struct.hwloc_topology, ptr %28, i32 0, i32 4
  %30 = load ptr, ptr %29, align 8, !tbaa !23
  %31 = getelementptr inbounds ptr, ptr %30, i64 0
  %32 = load ptr, ptr %31, align 8, !tbaa !45
  %33 = getelementptr inbounds ptr, ptr %32, i64 0
  %34 = load ptr, ptr %33, align 8, !tbaa !47
  %35 = getelementptr inbounds nuw %struct.hwloc_obj, ptr %34, i32 0, i32 26
  %36 = load ptr, ptr %35, align 8, !tbaa !49
  %37 = call i32 @hwloc_bitmap_last(ptr noundef %36) #17
  %38 = add nsw i32 %37, 1
  store i32 %38, ptr %4, align 4, !tbaa !10
  br label %39

39:                                               ; preds = %27, %16
  %40 = load i32, ptr %4, align 4, !tbaa !10
  %41 = icmp sle i32 %40, 0
  br i1 %41, label %42, label %43

42:                                               ; preds = %39
  store i32 1, ptr %4, align 4, !tbaa !10
  br label %43

43:                                               ; preds = %42, %39
  %44 = call ptr @hwloc__alloc_read_path_as_cpulist(ptr noundef @.str.4, i32 noundef -1)
  store ptr %44, ptr %5, align 8, !tbaa !8
  %45 = load ptr, ptr %5, align 8, !tbaa !8
  %46 = icmp ne ptr %45, null
  br i1 %46, label %47, label %62

47:                                               ; preds = %43
  call void @llvm.lifetime.start.p0(i64 4, ptr %7) #14
  %48 = load ptr, ptr %5, align 8, !tbaa !8
  %49 = call i32 @hwloc_bitmap_last(ptr noundef %48) #17
  store i32 %49, ptr %7, align 4, !tbaa !10
  br label %50

50:                                               ; preds = %47
  br label %51

51:                                               ; preds = %50
  br label %52

52:                                               ; preds = %51
  %53 = load i32, ptr %4, align 4, !tbaa !10
  %54 = load i32, ptr %7, align 4, !tbaa !10
  %55 = add nsw i32 %54, 1
  %56 = icmp slt i32 %53, %55
  br i1 %56, label %57, label %60

57:                                               ; preds = %52
  %58 = load i32, ptr %7, align 4, !tbaa !10
  %59 = add nsw i32 %58, 1
  store i32 %59, ptr %4, align 4, !tbaa !10
  br label %60

60:                                               ; preds = %57, %52
  %61 = load ptr, ptr %5, align 8, !tbaa !8
  call void @hwloc_bitmap_free(ptr noundef %61)
  call void @llvm.lifetime.end.p0(i64 4, ptr %7) #14
  br label %62

62:                                               ; preds = %60, %43
  br label %63

63:                                               ; preds = %94, %62
  br label %64

64:                                               ; preds = %63
  call void @llvm.lifetime.start.p0(i64 8, ptr %8) #14
  %65 = load i32, ptr %4, align 4, !tbaa !10
  %66 = sext i32 %65 to i64
  %67 = call ptr @__sched_cpualloc(i64 noundef %66) #14
  store ptr %67, ptr %8, align 8, !tbaa !21
  call void @llvm.lifetime.start.p0(i64 8, ptr %9) #14
  %68 = load i32, ptr %4, align 4, !tbaa !10
  %69 = sext i32 %68 to i64
  %70 = add i64 %69, 64
  %71 = sub i64 %70, 1
  %72 = udiv i64 %71, 64
  %73 = mul i64 %72, 8
  store i64 %73, ptr %9, align 8, !tbaa !12
  call void @llvm.lifetime.start.p0(i64 4, ptr %10) #14
  %74 = load ptr, ptr %8, align 8, !tbaa !21
  %75 = icmp ne ptr %74, null
  br i1 %75, label %77, label %76

76:                                               ; preds = %64
  store i32 -1, ptr %2, align 4
  store i32 1, ptr %6, align 4
  br label %92

77:                                               ; preds = %64
  %78 = load i64, ptr %9, align 8, !tbaa !12
  %79 = load ptr, ptr %8, align 8, !tbaa !21
  %80 = call i32 @sched_getaffinity(i32 noundef 0, i64 noundef %78, ptr noundef %79) #14
  store i32 %80, ptr %10, align 4, !tbaa !10
  %81 = load ptr, ptr %8, align 8, !tbaa !21
  call void @__sched_cpufree(ptr noundef %81) #14
  %82 = load i64, ptr %9, align 8, !tbaa !12
  %83 = mul i64 %82, 8
  %84 = trunc i64 %83 to i32
  store i32 %84, ptr %4, align 4, !tbaa !10
  %85 = load i32, ptr %10, align 4, !tbaa !10
  %86 = icmp ne i32 %85, 0
  br i1 %86, label %89, label %87

87:                                               ; preds = %77
  %88 = load i32, ptr %4, align 4, !tbaa !10
  store i32 %88, ptr @hwloc_linux_find_kernel_nr_cpus._nr_cpus, align 4, !tbaa !10
  store i32 %88, ptr %2, align 4
  store i32 1, ptr %6, align 4
  br label %92

89:                                               ; preds = %77
  %90 = load i32, ptr %4, align 4, !tbaa !10
  %91 = mul nsw i32 %90, 2
  store i32 %91, ptr %4, align 4, !tbaa !10
  store i32 0, ptr %6, align 4
  br label %92

92:                                               ; preds = %89, %87, %76
  call void @llvm.lifetime.end.p0(i64 4, ptr %10) #14
  call void @llvm.lifetime.end.p0(i64 8, ptr %9) #14
  call void @llvm.lifetime.end.p0(i64 8, ptr %8) #14
  %93 = load i32, ptr %6, align 4
  switch i32 %93, label %95 [
    i32 0, label %94
  ]

94:                                               ; preds = %92
  br label %63

95:                                               ; preds = %92, %14
  call void @llvm.lifetime.end.p0(i64 8, ptr %5) #14
  call void @llvm.lifetime.end.p0(i64 4, ptr %4) #14
  %96 = load i32, ptr %2, align 4
  ret i32 %96
}

; Function Attrs: nounwind uwtable
define i32 @hwloc_linux_get_tid_cpubind(ptr noundef %0, i32 noundef %1, ptr noundef %2) #0 {
  %4 = alloca i32, align 4
  %5 = alloca ptr, align 8
  %6 = alloca i32, align 4
  %7 = alloca ptr, align 8
  %8 = alloca i32, align 4
  %9 = alloca ptr, align 8
  %10 = alloca i32, align 4
  %11 = alloca i32, align 4
  %12 = alloca i64, align 8
  %13 = alloca i32, align 4
  %14 = alloca i32, align 4
  %15 = alloca i64, align 8
  %16 = alloca i32, align 4
  store ptr %0, ptr %5, align 8, !tbaa !19
  store i32 %1, ptr %6, align 4, !tbaa !10
  store ptr %2, ptr %7, align 8, !tbaa !8
  call void @llvm.lifetime.start.p0(i64 4, ptr %8) #14
  call void @llvm.lifetime.start.p0(i64 8, ptr %9) #14
  call void @llvm.lifetime.start.p0(i64 4, ptr %10) #14
  call void @llvm.lifetime.start.p0(i64 4, ptr %11) #14
  call void @llvm.lifetime.start.p0(i64 8, ptr %12) #14
  call void @llvm.lifetime.start.p0(i64 4, ptr %13) #14
  %17 = load ptr, ptr %5, align 8, !tbaa !19
  %18 = call i32 @hwloc_linux_find_kernel_nr_cpus(ptr noundef %17)
  store i32 %18, ptr %13, align 4, !tbaa !10
  %19 = load i32, ptr %13, align 4, !tbaa !10
  %20 = icmp slt i32 %19, 0
  br i1 %20, label %21, label %22

21:                                               ; preds = %3
  store i32 -1, ptr %4, align 4
  store i32 1, ptr %14, align 4
  br label %114

22:                                               ; preds = %3
  %23 = load i32, ptr %13, align 4, !tbaa !10
  %24 = sext i32 %23 to i64
  %25 = add i64 %24, 64
  %26 = sub i64 %25, 1
  %27 = udiv i64 %26, 64
  %28 = mul i64 %27, 8
  store i64 %28, ptr %12, align 8, !tbaa !12
  %29 = load i32, ptr %13, align 4, !tbaa !10
  %30 = sext i32 %29 to i64
  %31 = call ptr @__sched_cpualloc(i64 noundef %30) #14
  store ptr %31, ptr %9, align 8, !tbaa !21
  %32 = load ptr, ptr %9, align 8, !tbaa !21
  %33 = icmp ne ptr %32, null
  br i1 %33, label %35, label %34

34:                                               ; preds = %22
  store i32 -1, ptr %4, align 4
  store i32 1, ptr %14, align 4
  br label %114

35:                                               ; preds = %22
  %36 = load i32, ptr %6, align 4, !tbaa !10
  %37 = load i64, ptr %12, align 8, !tbaa !12
  %38 = load ptr, ptr %9, align 8, !tbaa !21
  %39 = call i32 @sched_getaffinity(i32 noundef %36, i64 noundef %37, ptr noundef %38) #14
  store i32 %39, ptr %8, align 4, !tbaa !10
  %40 = load i32, ptr %8, align 4, !tbaa !10
  %41 = icmp slt i32 %40, 0
  br i1 %41, label %42, label %44

42:                                               ; preds = %35
  %43 = load ptr, ptr %9, align 8, !tbaa !21
  call void @__sched_cpufree(ptr noundef %43) #14
  store i32 -1, ptr %4, align 4
  store i32 1, ptr %14, align 4
  br label %114

44:                                               ; preds = %35
  store i32 -1, ptr %11, align 4, !tbaa !10
  %45 = load ptr, ptr %5, align 8, !tbaa !19
  %46 = getelementptr inbounds nuw %struct.hwloc_topology, ptr %45, i32 0, i32 4
  %47 = load ptr, ptr %46, align 8, !tbaa !23
  %48 = getelementptr inbounds ptr, ptr %47, i64 0
  %49 = load ptr, ptr %48, align 8, !tbaa !45
  %50 = getelementptr inbounds ptr, ptr %49, i64 0
  %51 = load ptr, ptr %50, align 8, !tbaa !47
  %52 = getelementptr inbounds nuw %struct.hwloc_obj, ptr %51, i32 0, i32 26
  %53 = load ptr, ptr %52, align 8, !tbaa !49
  %54 = icmp ne ptr %53, null
  br i1 %54, label %55, label %66

55:                                               ; preds = %44
  %56 = load ptr, ptr %5, align 8, !tbaa !19
  %57 = getelementptr inbounds nuw %struct.hwloc_topology, ptr %56, i32 0, i32 4
  %58 = load ptr, ptr %57, align 8, !tbaa !23
  %59 = getelementptr inbounds ptr, ptr %58, i64 0
  %60 = load ptr, ptr %59, align 8, !tbaa !45
  %61 = getelementptr inbounds ptr, ptr %60, i64 0
  %62 = load ptr, ptr %61, align 8, !tbaa !47
  %63 = getelementptr inbounds nuw %struct.hwloc_obj, ptr %62, i32 0, i32 26
  %64 = load ptr, ptr %63, align 8, !tbaa !49
  %65 = call i32 @hwloc_bitmap_last(ptr noundef %64) #17
  store i32 %65, ptr %11, align 4, !tbaa !10
  br label %66

66:                                               ; preds = %55, %44
  %67 = load i32, ptr %11, align 4, !tbaa !10
  %68 = icmp eq i32 %67, -1
  br i1 %68, label %69, label %72

69:                                               ; preds = %66
  %70 = load i32, ptr %13, align 4, !tbaa !10
  %71 = sub nsw i32 %70, 1
  store i32 %71, ptr %11, align 4, !tbaa !10
  br label %72

72:                                               ; preds = %69, %66
  %73 = load ptr, ptr %7, align 8, !tbaa !8
  call void @hwloc_bitmap_zero(ptr noundef %73)
  store i32 0, ptr %10, align 4, !tbaa !10
  br label %74

74:                                               ; preds = %109, %72
  %75 = load i32, ptr %10, align 4, !tbaa !10
  %76 = load i32, ptr %11, align 4, !tbaa !10
  %77 = icmp ule i32 %75, %76
  br i1 %77, label %78, label %112

78:                                               ; preds = %74
  call void @llvm.lifetime.start.p0(i64 8, ptr %15) #14
  %79 = load i32, ptr %10, align 4, !tbaa !10
  %80 = zext i32 %79 to i64
  store i64 %80, ptr %15, align 8, !tbaa !12
  %81 = load i64, ptr %15, align 8, !tbaa !12
  %82 = udiv i64 %81, 8
  %83 = load i64, ptr %12, align 8, !tbaa !12
  %84 = icmp ult i64 %82, %83
  br i1 %84, label %85, label %99

85:                                               ; preds = %78
  %86 = load ptr, ptr %9, align 8, !tbaa !21
  %87 = getelementptr inbounds nuw %struct.cpu_set_t, ptr %86, i32 0, i32 0
  %88 = getelementptr inbounds [16 x i64], ptr %87, i64 0, i64 0
  %89 = load i64, ptr %15, align 8, !tbaa !12
  %90 = udiv i64 %89, 64
  %91 = getelementptr inbounds nuw i64, ptr %88, i64 %90
  %92 = load i64, ptr %91, align 8, !tbaa !12
  %93 = load i64, ptr %15, align 8, !tbaa !12
  %94 = urem i64 %93, 64
  %95 = shl i64 1, %94
  %96 = and i64 %92, %95
  %97 = icmp ne i64 %96, 0
  %98 = zext i1 %97 to i32
  br label %100

99:                                               ; preds = %78
  br label %100

100:                                              ; preds = %99, %85
  %101 = phi i32 [ %98, %85 ], [ 0, %99 ]
  store i32 %101, ptr %16, align 4, !tbaa !10
  call void @llvm.lifetime.end.p0(i64 8, ptr %15) #14
  %102 = load i32, ptr %16, align 4, !tbaa !10
  %103 = icmp ne i32 %102, 0
  br i1 %103, label %104, label %108

104:                                              ; preds = %100
  %105 = load ptr, ptr %7, align 8, !tbaa !8
  %106 = load i32, ptr %10, align 4, !tbaa !10
  %107 = call i32 @hwloc_bitmap_set(ptr noundef %105, i32 noundef %106)
  br label %108

108:                                              ; preds = %104, %100
  br label %109

109:                                              ; preds = %108
  %110 = load i32, ptr %10, align 4, !tbaa !10
  %111 = add i32 %110, 1
  store i32 %111, ptr %10, align 4, !tbaa !10
  br label %74, !llvm.loop !52

112:                                              ; preds = %74
  %113 = load ptr, ptr %9, align 8, !tbaa !21
  call void @__sched_cpufree(ptr noundef %113) #14
  store i32 0, ptr %4, align 4
  store i32 1, ptr %14, align 4
  br label %114

114:                                              ; preds = %112, %42, %34, %21
  call void @llvm.lifetime.end.p0(i64 4, ptr %13) #14
  call void @llvm.lifetime.end.p0(i64 8, ptr %12) #14
  call void @llvm.lifetime.end.p0(i64 4, ptr %11) #14
  call void @llvm.lifetime.end.p0(i64 4, ptr %10) #14
  call void @llvm.lifetime.end.p0(i64 8, ptr %9) #14
  call void @llvm.lifetime.end.p0(i64 4, ptr %8) #14
  %115 = load i32, ptr %4, align 4
  ret i32 %115
}