; Function Attrs: nounwind uwtable
define range(i32 -1, 1) i32 @hwloc_linux_get_tid_cpubind(ptr noundef readonly captures(none) %0, i32 noundef %1, ptr noundef %2) local_unnamed_addr #0 {
  %4 = load i32, ptr @hwloc_linux_find_kernel_nr_cpus._nr_cpus, align 4, !tbaa !3
  %.not.i = icmp eq i32 %4, -1
  br i1 %.not.i, label %5, label %hwloc_linux_find_kernel_nr_cpus.exit

5:                                                ; preds = %3
  %6 = getelementptr inbounds nuw i8, ptr %0, i64 24
  %7 = load ptr, ptr %6, align 8, !tbaa !16
  %8 = load ptr, ptr %7, align 8, !tbaa !40
  %9 = load ptr, ptr %8, align 8, !tbaa !42
  %10 = getelementptr inbounds nuw i8, ptr %9, i64 192
  %11 = load ptr, ptr %10, align 8, !tbaa !44
  %.not32.i = icmp eq ptr %11, null
  br i1 %.not32.i, label %15, label %12

12:                                               ; preds = %5
  %13 = tail call i32 @hwloc_bitmap_last(ptr noundef nonnull %11) #30
  %14 = add nsw i32 %13, 1
  br label %15

15:                                               ; preds = %12, %5
  %.022.i = phi i32 [ %14, %12 ], [ -1, %5 ]
  %spec.store.select.i = tail call i32 @llvm.smax.i32(i32 %.022.i, i32 1)
  %16 = tail call noalias ptr @hwloc_bitmap_alloc_full() #27
  %.not.i.i = icmp eq ptr %16, null
  br i1 %.not.i.i, label %hwloc__alloc_read_path_as_cpulist.exit.thread.i, label %17

17:                                               ; preds = %15
  %18 = tail call fastcc i32 @hwloc__read_path_as_cpulist(ptr noundef nonnull @.str.4, ptr noundef nonnull %16, i32 noundef -1)
  %19 = icmp slt i32 %18, 0
  br i1 %19, label %hwloc__alloc_read_path_as_cpulist.exit.thread.sink.split.i, label %hwloc__alloc_read_path_as_cpulist.exit.i

hwloc__alloc_read_path_as_cpulist.exit.i:         ; preds = %17
  %20 = tail call i32 @hwloc_bitmap_last(ptr noundef nonnull %16) #30
  %.not34.i = icmp sgt i32 %spec.store.select.i, %20
  %21 = add nsw i32 %20, 1
  %spec.select.i = select i1 %.not34.i, i32 %spec.store.select.i, i32 %21
  br label %hwloc__alloc_read_path_as_cpulist.exit.thread.sink.split.i

hwloc__alloc_read_path_as_cpulist.exit.thread.sink.split.i: ; preds = %hwloc__alloc_read_path_as_cpulist.exit.i, %17
  %.123.ph.i = phi i32 [ %spec.select.i, %hwloc__alloc_read_path_as_cpulist.exit.i ], [ %spec.store.select.i, %17 ]
  tail call void @hwloc_bitmap_free(ptr noundef nonnull %16) #27
  br label %hwloc__alloc_read_path_as_cpulist.exit.thread.i

hwloc__alloc_read_path_as_cpulist.exit.thread.i:  ; preds = %hwloc__alloc_read_path_as_cpulist.exit.thread.sink.split.i, %15
  %.123.i = phi i32 [ %spec.store.select.i, %15 ], [ %.123.ph.i, %hwloc__alloc_read_path_as_cpulist.exit.thread.sink.split.i ]
  %22 = sext i32 %.123.i to i64
  %23 = tail call ptr @__sched_cpualloc(i64 noundef %22) #27
  %.not3542.i = icmp eq ptr %23, null
  br i1 %.not3542.i, label %hwloc_linux_find_kernel_nr_cpus.exit.thread, label %.lr.ph.i

.lr.ph.i:                                         ; preds = %hwloc__alloc_read_path_as_cpulist.exit.thread.i, %32
  %24 = phi ptr [ %35, %32 ], [ %23, %hwloc__alloc_read_path_as_cpulist.exit.thread.i ]
  %25 = phi i64 [ %34, %32 ], [ %22, %hwloc__alloc_read_path_as_cpulist.exit.thread.i ]
  %26 = add nsw i64 %25, 63
  %27 = lshr i64 %26, 3
  %28 = and i64 %27, 2305843009213693944
  %29 = tail call i32 @sched_getaffinity(i32 noundef 0, i64 noundef %28, ptr noundef nonnull %24) #27
  tail call void @__sched_cpufree(ptr noundef nonnull %24) #27
  %.tr.i = trunc i64 %28 to i32
  %.not36.i = icmp eq i32 %29, 0
  br i1 %.not36.i, label %30, label %32

30:                                               ; preds = %.lr.ph.i
  %31 = shl i32 %.tr.i, 3
  store i32 %31, ptr @hwloc_linux_find_kernel_nr_cpus._nr_cpus, align 4, !tbaa !3
  br label %hwloc_linux_find_kernel_nr_cpus.exit

32:                                               ; preds = %.lr.ph.i
  %33 = shl i32 %.tr.i, 4
  %34 = sext i32 %33 to i64
  %35 = tail call ptr @__sched_cpualloc(i64 noundef %34) #27
  %.not35.i = icmp eq ptr %35, null
  br i1 %.not35.i, label %hwloc_linux_find_kernel_nr_cpus.exit.thread, label %.lr.ph.i

hwloc_linux_find_kernel_nr_cpus.exit:             ; preds = %3, %30
  %.0.i = phi i32 [ %4, %3 ], [ %31, %30 ]
  %36 = icmp slt i32 %.0.i, 0
  br i1 %36, label %hwloc_linux_find_kernel_nr_cpus.exit.thread, label %37

37:                                               ; preds = %hwloc_linux_find_kernel_nr_cpus.exit
  %38 = zext nneg i32 %.0.i to i64
  %39 = add nuw nsw i64 %38, 63
  %40 = lshr i64 %39, 3
  %41 = and i64 %40, 536870904
  %42 = tail call ptr @__sched_cpualloc(i64 noundef %38) #27
  %.not = icmp eq ptr %42, null
  br i1 %.not, label %hwloc_linux_find_kernel_nr_cpus.exit.thread, label %43

43:                                               ; preds = %37
  %44 = tail call i32 @sched_getaffinity(i32 noundef %1, i64 noundef %41, ptr noundef nonnull %42) #27
  %45 = icmp slt i32 %44, 0
  br i1 %45, label %hwloc_linux_find_kernel_nr_cpus.exit.thread.sink.split, label %46

46:                                               ; preds = %43
  %47 = getelementptr inbounds nuw i8, ptr %0, i64 24
  %48 = load ptr, ptr %47, align 8, !tbaa !16
  %49 = load ptr, ptr %48, align 8, !tbaa !40
  %50 = load ptr, ptr %49, align 8, !tbaa !42
  %51 = getelementptr inbounds nuw i8, ptr %50, i64 192
  %52 = load ptr, ptr %51, align 8, !tbaa !44
  %.not33 = icmp eq ptr %52, null
  br i1 %.not33, label %.thread, label %54

.thread:                                          ; preds = %46
  %53 = add nsw i32 %.0.i, -1
  br label %58

54:                                               ; preds = %46
  %55 = tail call i32 @hwloc_bitmap_last(ptr noundef nonnull %52) #30
  %.fr = freeze i32 %55
  %56 = icmp eq i32 %.fr, -1
  %57 = add nsw i32 %.0.i, -1
  %spec.select = select i1 %56, i32 %57, i32 %.fr
  br label %58

58:                                               ; preds = %54, %.thread
  %59 = phi i32 [ %53, %.thread ], [ %spec.select, %54 ]
  tail call void @hwloc_bitmap_zero(ptr noundef %2) #27
  br label %60

60:                                               ; preds = %58, %.critedge
  %.02840 = phi i32 [ 0, %58 ], [ %74, %.critedge ]
  %61 = zext i32 %.02840 to i64
  %62 = lshr i64 %61, 3
  %63 = icmp samesign ult i64 %62, %41
  br i1 %63, label %64, label %.critedge

64:                                               ; preds = %60
  %65 = lshr i64 %61, 6
  %66 = getelementptr inbounds nuw i64, ptr %42, i64 %65
  %67 = load i64, ptr %66, align 8, !tbaa !10
  %68 = and i64 %61, 63
  %69 = shl nuw i64 1, %68
  %70 = and i64 %67, %69
  %71 = icmp eq i64 %70, 0
  br i1 %71, label %.critedge, label %72

72:                                               ; preds = %64
  %73 = tail call i32 @hwloc_bitmap_set(ptr noundef %2, i32 noundef %.02840) #27
  br label %.critedge

.critedge:                                        ; preds = %60, %64, %72
  %74 = add i32 %.02840, 1
  %.not34 = icmp ugt i32 %74, %59
  br i1 %.not34, label %hwloc_linux_find_kernel_nr_cpus.exit.thread.sink.split, label %60, !llvm.loop !48

hwloc_linux_find_kernel_nr_cpus.exit.thread.sink.split: ; preds = %.critedge, %43
  %.0.ph = phi i32 [ -1, %43 ], [ 0, %.critedge ]
  tail call void @__sched_cpufree(ptr noundef nonnull %42) #27
  br label %hwloc_linux_find_kernel_nr_cpus.exit.thread

hwloc_linux_find_kernel_nr_cpus.exit.thread:      ; preds = %32, %hwloc_linux_find_kernel_nr_cpus.exit.thread.sink.split, %hwloc__alloc_read_path_as_cpulist.exit.thread.i, %37, %hwloc_linux_find_kernel_nr_cpus.exit
  %.0 = phi i32 [ -1, %hwloc_linux_find_kernel_nr_cpus.exit ], [ -1, %37 ], [ -1, %hwloc__alloc_read_path_as_cpulist.exit.thread.i ], [ %.0.ph, %hwloc_linux_find_kernel_nr_cpus.exit.thread.sink.split ], [ -1, %32 ]
  ret i32 %.0
}